ARM GAS  C:\Users\sk3220\AppData\Local\Temp\ccbFCMqd.s 			page 1


   1              		.syntax unified
   2              		.cpu cortex-m3
   3              		.fpu softvfp
   4              		.eabi_attribute 20, 1
   5              		.eabi_attribute 21, 1
   6              		.eabi_attribute 23, 3
   7              		.eabi_attribute 24, 1
   8              		.eabi_attribute 25, 1
   9              		.eabi_attribute 26, 1
  10              		.eabi_attribute 30, 1
  11              		.eabi_attribute 34, 1
  12              		.eabi_attribute 18, 4
  13              		.thumb
  14              		.syntax unified
  15              		.file	"main.c"
  16              		.text
  17              	.Ltext0:
  18              		.cfi_sections	.debug_frame
  19              		.global	__aeabi_ui2d
  20              		.global	__aeabi_dsub
  21              		.global	__aeabi_dmul
  22              		.global	__aeabi_dadd
  23              		.global	__aeabi_d2uiz
  24              		.section	.text.turn,"ax",%progbits
  25              		.align	2
  26              		.global	turn
  27              		.thumb
  28              		.thumb_func
  29              		.type	turn, %function
  30              	turn:
  31              	.LFB65:
  32              		.file 1 "main.c"
   1:main.c        ****   /* ========================================
   2:main.c        ****  *
   3:main.c        ****  * Copyright YOUR COMPANY, THE YEAR
   4:main.c        ****  * All Rights Reserved
   5:main.c        ****  * UNPUBLISHED, LICENSED SOFTWARE.
   6:main.c        ****  *
   7:main.c        ****  * CONFIDENTIAL AND PROPRIETARY INFORMATION
   8:main.c        ****  * WHICH IS THE PROPERTY OF your company.
   9:main.c        ****  *
  10:main.c        ****  * ========================================
  11:main.c        **** */
  12:main.c        **** #include "project.h"
  13:main.c        **** #include <stdio.h>
  14:main.c        **** #include <math.h>
  15:main.c        **** #include <stdbool.h>
  16:main.c        **** 
  17:main.c        **** bool servo_set = false;
  18:main.c        **** bool flame_found = false;
  19:main.c        **** 
  20:main.c        **** uint16 old_time = 65535;
  21:main.c        **** uint16 new_time = 0;
  22:main.c        **** uint16 dt = 0;
  23:main.c        **** double oldspeed = 0;
  24:main.c        **** double speed = 0;
  25:main.c        **** double target = 4; 
ARM GAS  C:\Users\sk3220\AppData\Local\Temp\ccbFCMqd.s 			page 2


  26:main.c        **** double n0 = 50;
  27:main.c        **** double n = 50;
  28:main.c        **** double error = 0;
  29:main.c        **** double integration = 0;
  30:main.c        **** double derivative = 0;
  31:main.c        **** double Kp = 80;
  32:main.c        **** double Ki = 1;
  33:main.c        **** double Kd = 0;
  34:main.c        **** double diameter = .216535; 
  35:main.c        **** 
  36:main.c        **** double percent;
  37:main.c        **** char strbuf2[16];
  38:main.c        **** double PWM_Steer; 
  39:main.c        **** double kp = -0.2;
  40:main.c        **** double kd = -0.2;
  41:main.c        **** uint16 new_timet;
  42:main.c        **** 
  43:main.c        **** /*
  44:main.c        **** CY_ISR(interCounter) {
  45:main.c        ****     uint16 captureVal;
  46:main.c        ****     char strbuf[16];
  47:main.c        ****     
  48:main.c        ****     captureVal = Timer_ReadCapture();
  49:main.c        ****     
  50:main.c        ****     sprintf(strbuf, "Count: %u", captureVal);
  51:main.c        ****     
  52:main.c        ****     char strbuf2[32];
  53:main.c        ****     sprintf(strbuf2,"%s\r\n",strbuf);
  54:main.c        ****     UART_PutString(strbuf2);
  55:main.c        ****     
  56:main.c        ****     LCD_ClearDisplay();
  57:main.c        ****     LCD_Position(0,0);
  58:main.c        ****     LCD_PrintString(strbuf);
  59:main.c        ****     
  60:main.c        ****     PWM_Motor_WriteCompare((uint8_t) 20);
  61:main.c        **** } */
  62:main.c        ****     
  63:main.c        **** /*
  64:main.c        **** CY_ISR(control) {
  65:main.c        ****     char strbuf[32];
  66:main.c        ****   
  67:main.c        ****     new_time = HE_Timer_ReadCapture();
  68:main.c        ****     HE_Timer_ReadStatusRegister();
  69:main.c        ****     
  70:main.c        ****     if (old_time > new_time){
  71:main.c        ****         dt = old_time - new_time;
  72:main.c        ****     } else{
  73:main.c        ****         dt = 65535 - new_time + old_time;
  74:main.c        ****     }
  75:main.c        ****     old_time = new_time;
  76:main.c        ****     speed = 1300/(double)dt;
  77:main.c        ****     error = target - speed;
  78:main.c        ****     integration = integration + error;
  79:main.c        ****     derivative = (speed - oldspeed)/(double)dt;
  80:main.c        ****     if (speed != 0) {
  81:main.c        ****         oldspeed = speed;
  82:main.c        ****     }
ARM GAS  C:\Users\sk3220\AppData\Local\Temp\ccbFCMqd.s 			page 3


  83:main.c        ****     n = n0 + Kp*error + Ki*integration + Kd*derivative;
  84:main.c        ****     if (n > 220) {
  85:main.c        ****         n = 220;
  86:main.c        ****     }
  87:main.c        ****     if (n < 0) {
  88:main.c        ****         n = 0;
  89:main.c        ****     }
  90:main.c        ****     PWM_Motor_WriteCompare((uint8_t) n);
  91:main.c        ****     
  92:main.c        ****     sprintf(strbuf, "Speed: %lf\r\n", speed);
  93:main.c        ****     UART_PutString(strbuf);
  94:main.c        ****     oldspeed = speed;
  95:main.c        **** }
  96:main.c        **** */
  97:main.c        **** CY_ISR(tempCheck) {
  98:main.c        ****     /*char receivedData[50]; // Buffer to store received data
  99:main.c        ****     int index = 0;
 100:main.c        ****     int count = 0; // count of turns 0 = center, 1 = left, 2 = right
 101:main.c        ****     // 58 is center, 32 is right, 86 is left
 102:main.c        ****     if (count == 0) {
 103:main.c        ****         PWM_IRServo_WriteCompare((uint8) 58);
 104:main.c        ****         char receivedChar = UART_Mega_ReadRxData();
 105:main.c        ****         if (receivedChar == 1) {
 106:main.c        ****             flame_found = true; // if 1 flame found 
 107:main.c        ****         } */
 108:main.c        ****         /*else {
 109:main.c        ****             PWM_IRServo_WriteCompare((uint8) 86);
 110:main.c        ****             count = 1;
 111:main.c        ****         }*/
 112:main.c        ****      //}
 113:main.c        ****     /*else if (count == 1) {
 114:main.c        ****         PWM_IRServo_WriteCompare((uint8) 86);
 115:main.c        ****         char receivedChar = UART_Mega_ReadRxData();
 116:main.c        ****         count = 2;
 117:main.c        ****     }
 118:main.c        ****     else {
 119:main.c        ****         PWM_IRServo_WriteCompare((uint8) 86);
 120:main.c        ****         char receivedChar = UART_Mega_ReadRxData();
 121:main.c        ****     } */
 122:main.c        ****     //servo_set = false;
 123:main.c        **** }
 124:main.c        **** 
 125:main.c        **** CY_ISR(turn) {
  33              		.loc 1 125 0
  34              		.cfi_startproc
  35              		@ args = 0, pretend = 0, frame = 0
  36              		@ frame_needed = 0, uses_anonymous_args = 0
  37 0000 2DE9F047 		push	{r4, r5, r6, r7, r8, r9, r10, lr}
  38              		.cfi_def_cfa_offset 32
  39              		.cfi_offset 4, -32
  40              		.cfi_offset 5, -28
  41              		.cfi_offset 6, -24
  42              		.cfi_offset 7, -20
  43              		.cfi_offset 8, -16
  44              		.cfi_offset 9, -12
  45              		.cfi_offset 10, -8
  46              		.cfi_offset 14, -4
ARM GAS  C:\Users\sk3220\AppData\Local\Temp\ccbFCMqd.s 			page 4


 126:main.c        ****     // new_timet is the time from the edge of the line of video to the left edge of the black line 
 127:main.c        ****     new_timet = 65535 - Timer_Edge_ReadCapture();
  47              		.loc 1 127 0
  48 0004 FFF7FEFF 		bl	Timer_Edge_ReadCapture
  49              	.LVL0:
  50 0008 C043     		mvns	r0, r0
  51 000a 82B2     		uxth	r2, r0
  52 000c 2A4D     		ldr	r5, .L3+8
  53 000e 2A80     		strh	r2, [r5]	@ movhi
 128:main.c        ****     
 129:main.c        ****     sprintf(strbuf2, "Count: %u \r\n", new_timet);
  54              		.loc 1 129 0
  55 0010 2A4C     		ldr	r4, .L3+12
  56 0012 2B49     		ldr	r1, .L3+16
  57 0014 2046     		mov	r0, r4
  58 0016 FFF7FEFF 		bl	sprintf
  59              	.LVL1:
 130:main.c        ****     UART_PutString(strbuf2);
  60              		.loc 1 130 0
  61 001a 2046     		mov	r0, r4
  62 001c FFF7FEFF 		bl	UART_PutString
  63              	.LVL2:
 131:main.c        ****     
 132:main.c        ****     /* 487 is the count for the timer that represents straight 
 133:main.c        ****     Only the error term was needed to complete PID control */
 134:main.c        ****     PWM_Steer = 110 + kp * (487 - (double)new_timet) + kd * (speed - oldspeed);
  64              		.loc 1 134 0
  65 0020 2888     		ldrh	r0, [r5]
  66 0022 FFF7FEFF 		bl	__aeabi_ui2d
  67              	.LVL3:
  68 0026 0246     		mov	r2, r0
  69 0028 0B46     		mov	r3, r1
  70 002a 21A1     		adr	r1, .L3
  71 002c D1E90001 		ldrd	r0, [r1]
  72 0030 FFF7FEFF 		bl	__aeabi_dsub
  73              	.LVL4:
  74 0034 DFF898A0 		ldr	r10, .L3+32
  75 0038 DAE90023 		ldrd	r2, [r10]
  76 003c FFF7FEFF 		bl	__aeabi_dmul
  77              	.LVL5:
  78 0040 0022     		movs	r2, #0
  79 0042 204B     		ldr	r3, .L3+20
  80 0044 FFF7FEFF 		bl	__aeabi_dadd
  81              	.LVL6:
  82 0048 8046     		mov	r8, r0
  83 004a 8946     		mov	r9, r1
  84 004c 1E4D     		ldr	r5, .L3+24
  85 004e D5E90067 		ldrd	r6, [r5]
  86 0052 D5E90223 		ldrd	r2, [r5, #8]
  87 0056 3046     		mov	r0, r6
  88 0058 3946     		mov	r1, r7
  89 005a FFF7FEFF 		bl	__aeabi_dsub
  90              	.LVL7:
  91 005e DAE90223 		ldrd	r2, [r10, #8]
  92 0062 FFF7FEFF 		bl	__aeabi_dmul
  93              	.LVL8:
  94 0066 0246     		mov	r2, r0
ARM GAS  C:\Users\sk3220\AppData\Local\Temp\ccbFCMqd.s 			page 5


  95 0068 0B46     		mov	r3, r1
  96 006a 4046     		mov	r0, r8
  97 006c 4946     		mov	r1, r9
  98 006e FFF7FEFF 		bl	__aeabi_dadd
  99              	.LVL9:
 100 0072 0246     		mov	r2, r0
 101 0074 0B46     		mov	r3, r1
 102 0076 DFF85C80 		ldr	r8, .L3+36
 103 007a C8E90023 		strd	r2, [r8]
 135:main.c        ****     oldspeed = speed;
 104              		.loc 1 135 0
 105 007e C5E90267 		strd	r6, [r5, #8]
 136:main.c        ****     speed = PWM_Steer;
 106              		.loc 1 136 0
 107 0082 C5E90023 		strd	r2, [r5]
 137:main.c        ****     sprintf(strbuf2, "PWM: %f \r\n", PWM_Steer);
 108              		.loc 1 137 0
 109 0086 1149     		ldr	r1, .L3+28
 110 0088 2046     		mov	r0, r4
 111 008a FFF7FEFF 		bl	sprintf
 112              	.LVL10:
 138:main.c        ****     UART_PutString(strbuf2);
 113              		.loc 1 138 0
 114 008e 2046     		mov	r0, r4
 115 0090 FFF7FEFF 		bl	UART_PutString
 116              	.LVL11:
 139:main.c        ****         
 140:main.c        ****     PWM_Servo_WriteCompare((uint8)PWM_Steer);
 117              		.loc 1 140 0
 118 0094 D8E90001 		ldrd	r0, [r8]
 119 0098 FFF7FEFF 		bl	__aeabi_d2uiz
 120              	.LVL12:
 121 009c C0B2     		uxtb	r0, r0
 122 009e FFF7FEFF 		bl	PWM_Servo_WriteCompare
 123              	.LVL13:
 141:main.c        ****     Timer_Edge_ReadStatusRegister();
 124              		.loc 1 141 0
 125 00a2 FFF7FEFF 		bl	Timer_Edge_ReadStatusRegister
 126              	.LVL14:
 127 00a6 BDE8F087 		pop	{r4, r5, r6, r7, r8, r9, r10, pc}
 128              	.L4:
 129 00aa 00BFAFF3 		.align	3
 129      0080
 130              	.L3:
 131 00b0 00000000 		.word	0
 132 00b4 00707E40 		.word	1082028032
 133 00b8 00000000 		.word	new_timet
 134 00bc 00000000 		.word	strbuf2
 135 00c0 00000000 		.word	.LC0
 136 00c4 00805B40 		.word	1079738368
 137 00c8 00000000 		.word	.LANCHOR1
 138 00cc 10000000 		.word	.LC1
 139 00d0 00000000 		.word	.LANCHOR0
 140 00d4 00000000 		.word	PWM_Steer
 141              		.cfi_endproc
 142              	.LFE65:
 143              		.size	turn, .-turn
ARM GAS  C:\Users\sk3220\AppData\Local\Temp\ccbFCMqd.s 			page 6


 144              		.section	.text.stop,"ax",%progbits
 145              		.align	2
 146              		.global	stop
 147              		.thumb
 148              		.thumb_func
 149              		.type	stop, %function
 150              	stop:
 151              	.LFB66:
 142:main.c        **** }
 143:main.c        **** 
 144:main.c        **** CY_ISR(stop) {
 152              		.loc 1 144 0
 153              		.cfi_startproc
 154              		@ args = 0, pretend = 0, frame = 0
 155              		@ frame_needed = 0, uses_anonymous_args = 0
 156 0000 08B5     		push	{r3, lr}
 157              		.cfi_def_cfa_offset 8
 158              		.cfi_offset 3, -8
 159              		.cfi_offset 14, -4
 145:main.c        ****     PWM_Motor_WriteCompare((uint8_t) 0);
 160              		.loc 1 145 0
 161 0002 0020     		movs	r0, #0
 162 0004 FFF7FEFF 		bl	PWM_Motor_WriteCompare
 163              	.LVL15:
 146:main.c        ****     //PWM_Servo_Stop();
 147:main.c        ****     flame_found = true;
 164              		.loc 1 147 0
 165 0008 0122     		movs	r2, #1
 166 000a 014B     		ldr	r3, .L7
 167 000c 1A74     		strb	r2, [r3, #16]
 168 000e 08BD     		pop	{r3, pc}
 169              	.L8:
 170              		.align	2
 171              	.L7:
 172 0010 00000000 		.word	.LANCHOR1
 173              		.cfi_endproc
 174              	.LFE66:
 175              		.size	stop, .-stop
 176              		.section	.text.tempCheck,"ax",%progbits
 177              		.align	2
 178              		.global	tempCheck
 179              		.thumb
 180              		.thumb_func
 181              		.type	tempCheck, %function
 182              	tempCheck:
 183              	.LFB64:
  97:main.c        ****     /*char receivedData[50]; // Buffer to store received data
 184              		.loc 1 97 0
 185              		.cfi_startproc
 186              		@ args = 0, pretend = 0, frame = 0
 187              		@ frame_needed = 0, uses_anonymous_args = 0
 188              		@ link register save eliminated.
 189 0000 7047     		bx	lr
 190              		.cfi_endproc
 191              	.LFE64:
 192              		.size	tempCheck, .-tempCheck
 193 0002 00BF     		.section	.text.main,"ax",%progbits
ARM GAS  C:\Users\sk3220\AppData\Local\Temp\ccbFCMqd.s 			page 7


 194              		.align	2
 195              		.global	main
 196              		.thumb
 197              		.thumb_func
 198              		.type	main, %function
 199              	main:
 200              	.LFB67:
 148:main.c        **** }
 149:main.c        **** int main(void)
 150:main.c        **** {
 201              		.loc 1 150 0
 202              		.cfi_startproc
 203              		@ args = 0, pretend = 0, frame = 32
 204              		@ frame_needed = 0, uses_anonymous_args = 0
 205              		.loc 1 150 0
 206 0000 00B5     		push	{lr}
 207              		.cfi_def_cfa_offset 4
 208              		.cfi_offset 14, -4
 209 0002 89B0     		sub	sp, sp, #36
 210              		.cfi_def_cfa_offset 40
 151:main.c        ****     CyGlobalIntEnable; /* Enable global interrupts. */
 211              		.loc 1 151 0
 212              		.syntax unified
 213              	@ 151 "main.c" 1
 214 0004 62B6     		CPSIE   i
 215              	@ 0 "" 2
 152:main.c        **** 
 153:main.c        ****     /* Place your initialization/startup code here (e.g. MyInst_Start()) */
 154:main.c        ****     UART_Start();
 216              		.loc 1 154 0
 217              		.thumb
 218              		.syntax unified
 219 0006 FFF7FEFF 		bl	UART_Start
 220              	.LVL16:
 155:main.c        ****     LCD_Start();
 221              		.loc 1 155 0
 222 000a FFF7FEFF 		bl	LCD_Start
 223              	.LVL17:
 156:main.c        ****     LCD_Position(0,0);
 224              		.loc 1 156 0
 225 000e 0021     		movs	r1, #0
 226 0010 0846     		mov	r0, r1
 227 0012 FFF7FEFF 		bl	LCD_Position
 228              	.LVL18:
 157:main.c        ****     LCD_PrintString("Hello World");
 229              		.loc 1 157 0
 230 0016 2948     		ldr	r0, .L15
 231 0018 FFF7FEFF 		bl	LCD_PrintString
 232              	.LVL19:
 158:main.c        ****     PWM_Motor_Start();
 233              		.loc 1 158 0
 234 001c FFF7FEFF 		bl	PWM_Motor_Start
 235              	.LVL20:
 159:main.c        ****     Timer_Edge_Start();
 236              		.loc 1 159 0
 237 0020 FFF7FEFF 		bl	Timer_Edge_Start
 238              	.LVL21:
ARM GAS  C:\Users\sk3220\AppData\Local\Temp\ccbFCMqd.s 			page 8


 160:main.c        ****     PWM_Servo_Start();
 239              		.loc 1 160 0
 240 0024 FFF7FEFF 		bl	PWM_Servo_Start
 241              	.LVL22:
 161:main.c        ****     Comp_Black_Start();
 242              		.loc 1 161 0
 243 0028 FFF7FEFF 		bl	Comp_Black_Start
 244              	.LVL23:
 162:main.c        ****     PWM_Fan_Start();
 245              		.loc 1 162 0
 246 002c FFF7FEFF 		bl	PWM_Fan_Start
 247              	.LVL24:
 163:main.c        ****     PWM_FanServos_Start();
 248              		.loc 1 163 0
 249 0030 FFF7FEFF 		bl	PWM_FanServos_Start
 250              	.LVL25:
 164:main.c        ****     PWM_IRServo_Start();
 251              		.loc 1 164 0
 252 0034 FFF7FEFF 		bl	PWM_IRServo_Start
 253              	.LVL26:
 165:main.c        ****     Ref_Start();
 254              		.loc 1 165 0
 255 0038 FFF7FEFF 		bl	Ref_Start
 256              	.LVL27:
 166:main.c        ****     Timer_Motor_Start();
 257              		.loc 1 166 0
 258 003c FFF7FEFF 		bl	Timer_Motor_Start
 259              	.LVL28:
 167:main.c        ****     Motor_Stop_Start();
 260              		.loc 1 167 0
 261 0040 FFF7FEFF 		bl	Motor_Stop_Start
 262              	.LVL29:
 168:main.c        ****     Motor_Stop_SetVector(stop);
 263              		.loc 1 168 0
 264 0044 1E48     		ldr	r0, .L15+4
 265 0046 FFF7FEFF 		bl	Motor_Stop_SetVector
 266              	.LVL30:
 169:main.c        ****     UART_Mega_Start();
 267              		.loc 1 169 0
 268 004a FFF7FEFF 		bl	UART_Mega_Start
 269              	.LVL31:
 170:main.c        ****     //UART_Mega_Sleep();
 171:main.c        ****     turn_Start();
 270              		.loc 1 171 0
 271 004e FFF7FEFF 		bl	turn_Start
 272              	.LVL32:
 172:main.c        ****     turn_SetVector(turn);
 273              		.loc 1 172 0
 274 0052 1C48     		ldr	r0, .L15+8
 275 0054 FFF7FEFF 		bl	turn_SetVector
 276              	.LVL33:
 173:main.c        ****     //Temp_received_Start();
 174:main.c        ****     //Temp_received_SetVector(tempCheck);
 175:main.c        ****     char strbuf2[32];
 176:main.c        ****     sprintf(strbuf2,"test\r\n");
 277              		.loc 1 176 0
 278 0058 1B4B     		ldr	r3, .L15+12
ARM GAS  C:\Users\sk3220\AppData\Local\Temp\ccbFCMqd.s 			page 9


 279 005a 93E80300 		ldmia	r3, {r0, r1}
 280 005e 0090     		str	r0, [sp]
 281 0060 ADF80410 		strh	r1, [sp, #4]	@ movhi
 282 0064 090C     		lsrs	r1, r1, #16
 283 0066 8DF80610 		strb	r1, [sp, #6]
 177:main.c        ****     UART_PutString(strbuf2);
 284              		.loc 1 177 0
 285 006a 6846     		mov	r0, sp
 286 006c FFF7FEFF 		bl	UART_PutString
 287              	.LVL34:
 178:main.c        ****     // 2 = stop going forward flame was found and now is not, 1 = flame found, 0 = flame not found 
 179:main.c        ****     //Uart_mega send temp from left, then psoc send turn finished, 
 180:main.c        ****     // mega send highest, psoc send turn finidhed (no on the right mega send temp
 181:main.c        ****     //if flame found at any of them, break from flame search loop.
 182:main.c        ****     // 58 is center, 32 is right, 86 is left
 183:main.c        ****     //centered
 184:main.c        ****     PWM_Motor_WriteCompare((uint8_t) 40);
 288              		.loc 1 184 0
 289 0070 2820     		movs	r0, #40
 290 0072 FFF7FEFF 		bl	PWM_Motor_WriteCompare
 291              	.LVL35:
 185:main.c        ****     PWM_FanServos_WriteCompare1((uint8) 58); // right fan from back view
 292              		.loc 1 185 0
 293 0076 3A20     		movs	r0, #58
 294 0078 FFF7FEFF 		bl	PWM_FanServos_WriteCompare1
 295              	.LVL36:
 186:main.c        ****     PWM_FanServos_WriteCompare2((uint8) 58); //left fan from back view
 296              		.loc 1 186 0
 297 007c 3A20     		movs	r0, #58
 298 007e FFF7FEFF 		bl	PWM_FanServos_WriteCompare2
 299              	.LVL37:
 187:main.c        ****     PWM_IRServo_WriteCompare((uint8) 58);
 300              		.loc 1 187 0
 301 0082 3A20     		movs	r0, #58
 302 0084 FFF7FEFF 		bl	PWM_IRServo_WriteCompare
 303              	.LVL38:
 304              	.L11:
 305              	.LBB2:
 188:main.c        ****     for(;;)
 189:main.c        ****     {
 190:main.c        ****         /* Place your application code here. */
 191:main.c        ****         double rpm = 0;
 192:main.c        ****         /*
 193:main.c        ****         if (servo_set) { //Want UART only receiving when the IR camera is set in position
 194:main.c        ****             UART_Mega_Wakeup();
 195:main.c        ****         } */
 196:main.c        ****         /* if the flame is close, point the servos */
 197:main.c        ****         /* if the flame is found, turn on the fans */
 198:main.c        ****         UART_Mega_PutChar(0);
 306              		.loc 1 198 0
 307 0088 0020     		movs	r0, #0
 308 008a FFF7FEFF 		bl	UART_Mega_PutChar
 309              	.LVL39:
 199:main.c        ****         if (flame_found) {
 310              		.loc 1 199 0
 311 008e 0F4B     		ldr	r3, .L15+16
 312 0090 1B7C     		ldrb	r3, [r3, #16]	@ zero_extendqisi2
ARM GAS  C:\Users\sk3220\AppData\Local\Temp\ccbFCMqd.s 			page 10


 313 0092 002B     		cmp	r3, #0
 314 0094 F8D0     		beq	.L11
 200:main.c        ****             //centered
 201:main.c        ****             if (!servo_set) {
 315              		.loc 1 201 0
 316 0096 0D4B     		ldr	r3, .L15+16
 317 0098 5B7C     		ldrb	r3, [r3, #17]	@ zero_extendqisi2
 318 009a 2BB9     		cbnz	r3, .L12
 202:main.c        ****             PWM_FanServos_WriteCompare1((uint8) 69); // right fan from back view
 319              		.loc 1 202 0
 320 009c 4520     		movs	r0, #69
 321 009e FFF7FEFF 		bl	PWM_FanServos_WriteCompare1
 322              	.LVL40:
 203:main.c        ****             PWM_FanServos_WriteCompare2((uint8) 47); //left fan from back view\
 323              		.loc 1 203 0
 324 00a2 2F20     		movs	r0, #47
 325 00a4 FFF7FEFF 		bl	PWM_FanServos_WriteCompare2
 326              	.LVL41:
 327              	.L12:
 204:main.c        ****             servo_set = true;
 205:main.c        ****             }
 206:main.c        ****             rpm = 254;
 207:main.c        ****             //blowing
 208:main.c        ****             PWM_Fan_WriteCompare1((uint8) rpm);
 328              		.loc 1 208 0
 329 00a8 FE20     		movs	r0, #254
 330 00aa FFF7FEFF 		bl	PWM_Fan_WriteCompare1
 331              	.LVL42:
 209:main.c        ****             PWM_Fan_WriteCompare2((uint8) rpm);
 332              		.loc 1 209 0
 333 00ae FE20     		movs	r0, #254
 334 00b0 FFF7FEFF 		bl	PWM_Fan_WriteCompare2
 335              	.LVL43:
 210:main.c        ****             UART_Mega_PutChar(1);
 336              		.loc 1 210 0
 337 00b4 0120     		movs	r0, #1
 338 00b6 FFF7FEFF 		bl	UART_Mega_PutChar
 339              	.LVL44:
 340 00ba E5E7     		b	.L11
 341              	.L16:
 342              		.align	2
 343              	.L15:
 344 00bc 1C000000 		.word	.LC2
 345 00c0 00000000 		.word	stop
 346 00c4 00000000 		.word	turn
 347 00c8 28000000 		.word	.LC3
 348 00cc 00000000 		.word	.LANCHOR1
 349              	.LBE2:
 350              		.cfi_endproc
 351              	.LFE67:
 352              		.size	main, .-main
 353              		.comm	new_timet,2,2
 354              		.global	kd
 355              		.global	kp
 356              		.comm	PWM_Steer,8,8
 357              		.comm	strbuf2,16,4
 358              		.comm	percent,8,8
ARM GAS  C:\Users\sk3220\AppData\Local\Temp\ccbFCMqd.s 			page 11


 359              		.global	diameter
 360              		.global	Kd
 361              		.global	Ki
 362              		.global	Kp
 363              		.global	derivative
 364              		.global	integration
 365              		.global	error
 366              		.global	n
 367              		.global	n0
 368              		.global	target
 369              		.global	speed
 370              		.global	oldspeed
 371              		.global	dt
 372              		.global	new_time
 373              		.global	old_time
 374              		.global	flame_found
 375              		.global	servo_set
 376              		.data
 377              		.align	3
 378              		.set	.LANCHOR0,. + 0
 379              		.type	kp, %object
 380              		.size	kp, 8
 381              	kp:
 382 0000 9A999999 		.word	-1717986918
 383 0004 9999C9BF 		.word	-1077306983
 384              		.type	kd, %object
 385              		.size	kd, 8
 386              	kd:
 387 0008 9A999999 		.word	-1717986918
 388 000c 9999C9BF 		.word	-1077306983
 389              		.type	diameter, %object
 390              		.size	diameter, 8
 391              	diameter:
 392 0010 F33CB83B 		.word	1001929971
 393 0014 6BB7CB3F 		.word	1070315371
 394              		.type	Ki, %object
 395              		.size	Ki, 8
 396              	Ki:
 397 0018 00000000 		.word	0
 398 001c 0000F03F 		.word	1072693248
 399              		.type	Kp, %object
 400              		.size	Kp, 8
 401              	Kp:
 402 0020 00000000 		.word	0
 403 0024 00005440 		.word	1079246848
 404              		.type	n, %object
 405              		.size	n, 8
 406              	n:
 407 0028 00000000 		.word	0
 408 002c 00004940 		.word	1078525952
 409              		.type	n0, %object
 410              		.size	n0, 8
 411              	n0:
 412 0030 00000000 		.word	0
 413 0034 00004940 		.word	1078525952
 414              		.type	target, %object
 415              		.size	target, 8
ARM GAS  C:\Users\sk3220\AppData\Local\Temp\ccbFCMqd.s 			page 12


 416              	target:
 417 0038 00000000 		.word	0
 418 003c 00001040 		.word	1074790400
 419              		.type	old_time, %object
 420              		.size	old_time, 2
 421              	old_time:
 422 0040 FFFF     		.short	-1
 423              		.section	.rodata.str1.4,"aMS",%progbits,1
 424              		.align	2
 425              	.LC0:
 426 0000 436F756E 		.ascii	"Count: %u \015\012\000"
 426      743A2025 
 426      75200D0A 
 426      00
 427 000d 000000   		.space	3
 428              	.LC1:
 429 0010 50574D3A 		.ascii	"PWM: %f \015\012\000"
 429      20256620 
 429      0D0A00
 430 001b 00       		.space	1
 431              	.LC2:
 432 001c 48656C6C 		.ascii	"Hello World\000"
 432      6F20576F 
 432      726C6400 
 433              	.LC3:
 434 0028 74657374 		.ascii	"test\015\012\000"
 434      0D0A00
 435              		.bss
 436              		.align	3
 437              		.set	.LANCHOR1,. + 0
 438              		.type	speed, %object
 439              		.size	speed, 8
 440              	speed:
 441 0000 00000000 		.space	8
 441      00000000 
 442              		.type	oldspeed, %object
 443              		.size	oldspeed, 8
 444              	oldspeed:
 445 0008 00000000 		.space	8
 445      00000000 
 446              		.type	flame_found, %object
 447              		.size	flame_found, 1
 448              	flame_found:
 449 0010 00       		.space	1
 450              		.type	servo_set, %object
 451              		.size	servo_set, 1
 452              	servo_set:
 453 0011 00       		.space	1
 454 0012 00000000 		.space	6
 454      0000
 455              		.type	Kd, %object
 456              		.size	Kd, 8
 457              	Kd:
 458 0018 00000000 		.space	8
 458      00000000 
 459              		.type	derivative, %object
 460              		.size	derivative, 8
ARM GAS  C:\Users\sk3220\AppData\Local\Temp\ccbFCMqd.s 			page 13


 461              	derivative:
 462 0020 00000000 		.space	8
 462      00000000 
 463              		.type	integration, %object
 464              		.size	integration, 8
 465              	integration:
 466 0028 00000000 		.space	8
 466      00000000 
 467              		.type	error, %object
 468              		.size	error, 8
 469              	error:
 470 0030 00000000 		.space	8
 470      00000000 
 471              		.type	dt, %object
 472              		.size	dt, 2
 473              	dt:
 474 0038 0000     		.space	2
 475              		.type	new_time, %object
 476              		.size	new_time, 2
 477              	new_time:
 478 003a 0000     		.space	2
 479              		.text
 480              	.Letext0:
 481              		.file 2 "c:\\program files (x86)\\cypress\\psoc creator\\4.4\\psoc creator\\import\\gnu\\arm\\5.4.
 482              		.file 3 "c:\\program files (x86)\\cypress\\psoc creator\\4.4\\psoc creator\\import\\gnu\\arm\\5.4.
 483              		.file 4 "Generated_Source\\PSoC5/cytypes.h"
 484              		.file 5 "Generated_Source\\PSoC5/core_cm3.h"
 485              		.file 6 "Generated_Source\\PSoC5/Timer_Edge.h"
 486              		.file 7 "c:\\program files (x86)\\cypress\\psoc creator\\4.4\\psoc creator\\import\\gnu\\arm\\5.4.
 487              		.file 8 "Generated_Source\\PSoC5/UART.h"
 488              		.file 9 "Generated_Source\\PSoC5/PWM_Servo.h"
 489              		.file 10 "Generated_Source\\PSoC5/PWM_Motor.h"
 490              		.file 11 "Generated_Source\\PSoC5/UART_Mega.h"
 491              		.file 12 "Generated_Source\\PSoC5/PWM_FanServos.h"
 492              		.file 13 "Generated_Source\\PSoC5/PWM_Fan.h"
 493              		.file 14 "Generated_Source\\PSoC5/LCD.h"
 494              		.file 15 "Generated_Source\\PSoC5/Comp_Black.h"
 495              		.file 16 "Generated_Source\\PSoC5/PWM_IRServo.h"
 496              		.file 17 "Generated_Source\\PSoC5/Ref.h"
 497              		.file 18 "Generated_Source\\PSoC5/Timer_Motor.h"
 498              		.file 19 "Generated_Source\\PSoC5/Motor_Stop.h"
 499              		.file 20 "Generated_Source\\PSoC5/turn.h"